target datalayout = "e-m:e-p270:32:32-p271:32:32-p272:64:64-i64:64-i128:128-f80:128-n8:16:32:64-S128"
target triple = "x86_64-unknown-linux-gnu"

%"class.rocksdb::Slice" = type { ptr, i64 }
%"struct.rocksdb::DBPropertyInfo" = type { i8, { i64, i64 }, { i64, i64 }, { i64, i64 }, { i64, i64 } }
%"struct.std::pair.310" = type { %"class.rocksdb::Slice", %"class.rocksdb::Slice" }

; Function Attrs: mustprogress nounwind uwtable
define linkonce_odr void @_ZNSt4pairIN7rocksdb5SliceES1_EC2IRS1_S4_TnNSt9enable_ifIXaaclsr5_PCCPE22_MoveConstructiblePairIT_T0_EEclsr5_PCCPE30_ImplicitlyMoveConvertiblePairIS6_S7_EEEbE4typeELb1EEEOS6_OS7_(ptr noundef nonnull align 8 dereferenceable(32) %this, ptr noundef nonnull align 8 dereferenceable(16) %__x, ptr noundef nonnull align 8 dereferenceable(16) %__y) unnamed_addr #1 comdat align 2 {
entry:
  %this.addr = alloca ptr, align 8
  %__x.addr = alloca ptr, align 8
  %__y.addr = alloca ptr, align 8
  store ptr %this, ptr %this.addr, align 8
  store ptr %__x, ptr %__x.addr, align 8
  store ptr %__y, ptr %__y.addr, align 8
  %this1 = load ptr, ptr %this.addr, align 8
  %first = getelementptr inbounds %"struct.std::pair.310", ptr %this1, i32 0, i32 0
  %0 = load ptr, ptr %__x.addr, align 8
  call void @llvm.memcpy.p0.p0.i64(ptr align 8 %first, ptr align 8 %0, i64 16, i1 false)
  %second = getelementptr inbounds %"struct.std::pair.310", ptr %this1, i32 0, i32 1
  %1 = load ptr, ptr %__y.addr, align 8
  call void @llvm.memcpy.p0.p0.i64(ptr align 8 %second, ptr align 8 %1, i64 16, i1 false)
  ret void
}

; Function Attrs: mustprogress nounwind uwtable
define linkonce_odr void @_ZN7rocksdb5Slice13remove_prefixEm(ptr noundef nonnull align 8 dereferenceable(16) %this, i64 noundef %n) #1 comdat align 2 {
entry:
  %this.addr = alloca ptr, align 8
  %n.addr = alloca i64, align 8
  store ptr %this, ptr %this.addr, align 8
  store i64 %n, ptr %n.addr, align 8
  %this1 = load ptr, ptr %this.addr, align 8
  %0 = load i64, ptr %n.addr, align 8
  %data_ = getelementptr inbounds %"class.rocksdb::Slice", ptr %this1, i32 0, i32 0
  %1 = load ptr, ptr %data_, align 8
  %add.ptr = getelementptr inbounds i8, ptr %1, i64 %0
  store ptr %add.ptr, ptr %data_, align 8
  %2 = load i64, ptr %n.addr, align 8
  %size_ = getelementptr inbounds %"class.rocksdb::Slice", ptr %this1, i32 0, i32 1
  %3 = load i64, ptr %size_, align 8
  %sub = sub i64 %3, %2
  store i64 %sub, ptr %size_, align 8
  ret void
}

; Function Attrs: mustprogress nounwind uwtable
define linkonce_odr void @_ZN7rocksdb5Slice13remove_suffixEm(ptr noundef nonnull align 8 dereferenceable(16) %this, i64 noundef %n) #1 comdat align 2 {
entry:
  %this.addr = alloca ptr, align 8
  %n.addr = alloca i64, align 8
  store ptr %this, ptr %this.addr, align 8
  store i64 %n, ptr %n.addr, align 8
  %this1 = load ptr, ptr %this.addr, align 8
  %0 = load i64, ptr %n.addr, align 8
  %size_ = getelementptr inbounds %"class.rocksdb::Slice", ptr %this1, i32 0, i32 1
  %1 = load i64, ptr %size_, align 8
  %sub = sub i64 %1, %0
  store i64 %sub, ptr %size_, align 8
  ret void
}

; Function Attrs: mustprogress nounwind uwtable
define linkonce_odr noundef signext i8 @_ZNK7rocksdb5SliceixEm(ptr noundef nonnull align 8 dereferenceable(16) %this, i64 noundef %n) #1 comdat align 2 {
entry:
  %this.addr = alloca ptr, align 8
  %n.addr = alloca i64, align 8
  store ptr %this, ptr %this.addr, align 8
  store i64 %n, ptr %n.addr, align 8
  %this1 = load ptr, ptr %this.addr, align 8
  %data_ = getelementptr inbounds %"class.rocksdb::Slice", ptr %this1, i32 0, i32 0
  %0 = load ptr, ptr %data_, align 8
  %1 = load i64, ptr %n.addr, align 8
  %arrayidx = getelementptr inbounds i8, ptr %0, i64 %1
  %2 = load i8, ptr %arrayidx, align 1
  ret i8 %2
}

; Function Attrs: mustprogress nounwind uwtable
define linkonce_odr noundef i64 @_ZNK7rocksdb5Slice4sizeEv(ptr noundef nonnull align 8 dereferenceable(16) %this) #1 comdat align 2 {
entry:
  %this.addr = alloca ptr, align 8
  store ptr %this, ptr %this.addr, align 8
  %this1 = load ptr, ptr %this.addr, align 8
  %size_ = getelementptr inbounds %"class.rocksdb::Slice", ptr %this1, i32 0, i32 1
  %0 = load i64, ptr %size_, align 8
  ret i64 %0
}

; Function Attrs: mustprogress uwtable
define internal void @_ZN7rocksdb12_GLOBAL__N_121GetPropertyNameAndArgERKNS_5SliceE(ptr noalias sret(%"struct.std::pair.310") align 8 %agg.result, ptr noundef nonnull align 8 dereferenceable(16) %property) #0 {
entry:
  %property.addr = alloca ptr, align 8
  %name = alloca %"class.rocksdb::Slice", align 8
  %arg = alloca %"class.rocksdb::Slice", align 8
  %sfx_len = alloca i64, align 8
  store ptr %property, ptr %property.addr, align 8
  %0 = load ptr, ptr %property.addr, align 8
  call void @llvm.memcpy.p0.p0.i64(ptr align 8 %name, ptr align 8 %0, i64 16, i1 false)
  %1 = load ptr, ptr %property.addr, align 8
  call void @llvm.memcpy.p0.p0.i64(ptr align 8 %arg, ptr align 8 %1, i64 16, i1 false)
  store i64 0, ptr %sfx_len, align 8
  br label %while.cond

while.cond:                                       ; preds = %while.body, %entry
  %2 = load i64, ptr %sfx_len, align 8
  %3 = load ptr, ptr %property.addr, align 8
  %call = call noundef i64 @_ZNK7rocksdb5Slice4sizeEv(ptr noundef nonnull align 8 dereferenceable(16) %3)
  %cmp = icmp ult i64 %2, %call
  br i1 %cmp, label %land.rhs, label %land.end

land.rhs:                                         ; preds = %while.cond
  %4 = load ptr, ptr %property.addr, align 8
  %5 = load ptr, ptr %property.addr, align 8
  %call1 = call noundef i64 @_ZNK7rocksdb5Slice4sizeEv(ptr noundef nonnull align 8 dereferenceable(16) %5)
  %6 = load i64, ptr %sfx_len, align 8
  %sub = sub i64 %call1, %6
  %sub2 = sub i64 %sub, 1
  %call3 = call noundef signext i8 @_ZNK7rocksdb5SliceixEm(ptr noundef nonnull align 8 dereferenceable(16) %4, i64 noundef %sub2)
  %conv = sext i8 %call3 to i32
  %call4 = call i32 @isdigit(i32 noundef %conv) #21
  %tobool = icmp ne i32 %call4, 0
  br label %land.end

land.end:                                         ; preds = %land.rhs, %while.cond
  %7 = phi i1 [ false, %while.cond ], [ %tobool, %land.rhs ]
  br i1 %7, label %while.body, label %while.end

while.body:                                       ; preds = %land.end
  %8 = load i64, ptr %sfx_len, align 8
  %inc = add i64 %8, 1
  store i64 %inc, ptr %sfx_len, align 8
  br label %while.cond, !llvm.loop !12

while.end:                                        ; preds = %land.end
  %9 = load i64, ptr %sfx_len, align 8
  call void @_ZN7rocksdb5Slice13remove_suffixEm(ptr noundef nonnull align 8 dereferenceable(16) %name, i64 noundef %9)
  %10 = load ptr, ptr %property.addr, align 8
  %call5 = call noundef i64 @_ZNK7rocksdb5Slice4sizeEv(ptr noundef nonnull align 8 dereferenceable(16) %10)
  %11 = load i64, ptr %sfx_len, align 8
  %sub6 = sub i64 %call5, %11
  call void @_ZN7rocksdb5Slice13remove_prefixEm(ptr noundef nonnull align 8 dereferenceable(16) %arg, i64 noundef %sub6)
  call void @_ZNSt4pairIN7rocksdb5SliceES1_EC2IRS1_S4_TnNSt9enable_ifIXaaclsr5_PCCPE22_MoveConstructiblePairIT_T0_EEclsr5_PCCPE30_ImplicitlyMoveConvertiblePairIS6_S7_EEEbE4typeELb1EEEOS6_OS7_(ptr noundef nonnull align 8 dereferenceable(32) %agg.result, ptr noundef nonnull align 8 dereferenceable(16) %name, ptr noundef nonnull align 8 dereferenceable(16) %arg)
  ret void
}

; Function Attrs: mustprogress uwtable
define noundef zeroext i1 @_ZN7rocksdb13InternalStats17GetStringPropertyERKNS_14DBPropertyInfoERKNS_5SliceEPNSt7__cxx1112basic_stringIcSt11char_traitsIcESaIcEEE(ptr noundef nonnull align 8 dereferenceable(1944) %this, ptr noundef nonnull align 8 dereferenceable(72) %property_info, ptr noundef nonnull align 8 dereferenceable(16) %property, ptr noundef %value) #0 align 2 {
entry:
  %this.addr = alloca ptr, align 8
  %property_info.addr = alloca ptr, align 8
  %property.addr = alloca ptr, align 8
  %value.addr = alloca ptr, align 8
  %arg = alloca %"class.rocksdb::Slice", align 8
  %ref.tmp = alloca %"struct.std::pair.310", align 8
  %agg.tmp = alloca %"class.rocksdb::Slice", align 8
  store ptr %this, ptr %this.addr, align 8
  store ptr %property_info, ptr %property_info.addr, align 8
  store ptr %property, ptr %property.addr, align 8
  store ptr %value, ptr %value.addr, align 8
  %this1 = load ptr, ptr %this.addr, align 8
  %0 = load ptr, ptr %property.addr, align 8
  call void @_ZN7rocksdb12_GLOBAL__N_121GetPropertyNameAndArgERKNS_5SliceE(ptr sret(%"struct.std::pair.310") align 8 %ref.tmp, ptr noundef nonnull align 8 dereferenceable(16) %0)
  %second = getelementptr inbounds %"struct.std::pair.310", ptr %ref.tmp, i32 0, i32 1
  call void @llvm.memcpy.p0.p0.i64(ptr align 8 %arg, ptr align 8 %second, i64 16, i1 false)
  %1 = load ptr, ptr %property_info.addr, align 8
  %handle_string = getelementptr inbounds %"struct.rocksdb::DBPropertyInfo", ptr %1, i32 0, i32 1
  %2 = load { i64, i64 }, ptr %handle_string, align 8
  %memptr.adj = extractvalue { i64, i64 } %2, 1
  %3 = getelementptr inbounds i8, ptr %this1, i64 %memptr.adj
  %memptr.ptr = extractvalue { i64, i64 } %2, 0
  %4 = and i64 %memptr.ptr, 1
  %memptr.isvirtual = icmp ne i64 %4, 0
  br i1 %memptr.isvirtual, label %memptr.virtual, label %memptr.nonvirtual

memptr.virtual:                                   ; preds = %entry
  %vtable = load ptr, ptr %3, align 8
  %5 = sub i64 %memptr.ptr, 1
  %6 = getelementptr i8, ptr %vtable, i64 %5, !nosanitize !13
  %memptr.virtualfn = load ptr, ptr %6, align 8, !nosanitize !13
  br label %memptr.end

memptr.nonvirtual:                                ; preds = %entry
  %memptr.nonvirtualfn = inttoptr i64 %memptr.ptr to ptr
  br label %memptr.end

memptr.end:                                       ; preds = %memptr.nonvirtual, %memptr.virtual
  %7 = phi ptr [ %memptr.virtualfn, %memptr.virtual ], [ %memptr.nonvirtualfn, %memptr.nonvirtual ]
  %8 = load ptr, ptr %value.addr, align 8
  call void @llvm.memcpy.p0.p0.i64(ptr align 8 %agg.tmp, ptr align 8 %arg, i64 16, i1 false)
  %9 = getelementptr inbounds { ptr, i64 }, ptr %agg.tmp, i32 0, i32 0
  %10 = load ptr, ptr %9, align 8
  %11 = getelementptr inbounds { ptr, i64 }, ptr %agg.tmp, i32 0, i32 1
  %12 = load i64, ptr %11, align 8
  %call = call noundef zeroext i1 %7(ptr noundef nonnull align 8 dereferenceable(1944) %3, ptr noundef %8, ptr %10, i64 %12)
  ret i1 %call
}