; Function Attrs: mustprogress uwtable
define noundef zeroext i1 @_ZN7rocksdb13InternalStats17GetStringPropertyERKNS_14DBPropertyInfoERKNS_5SliceEPNSt7__cxx1112basic_stringIcSt11char_traitsIcESaIcEEE(ptr noundef nonnull align 8 dereferenceable(1944) %this, ptr nocapture noundef nonnull readonly align 8 dereferenceable(72) %property_info, ptr nocapture noundef nonnull readonly align 8 dereferenceable(16) %property, ptr noundef %value) local_unnamed_addr #4 align 2 {
entry:
  %name.sroa.0.0.copyload.i = load ptr, ptr %property, align 8, !noalias !47
  %name.sroa.2.0.property.sroa_idx.i = getelementptr inbounds i8, ptr %property, i64 8
  %name.sroa.2.0.copyload.i = load i64, ptr %name.sroa.2.0.property.sroa_idx.i, align 8, !noalias !47
  %cmp19.not.i = icmp eq i64 %name.sroa.2.0.copyload.i, 0
  br i1 %cmp19.not.i, label %_ZN7rocksdb12_GLOBAL__N_121GetPropertyNameAndArgERKNS_5SliceE.exit, label %land.rhs.lr.ph.i

land.rhs.lr.ph.i:                                 ; preds = %entry
  %0 = getelementptr i8, ptr %name.sroa.0.0.copyload.i, i64 %name.sroa.2.0.copyload.i
  br label %land.rhs.i

land.rhs.i:                                       ; preds = %while.body.i, %land.rhs.lr.ph.i
  %sfx_len.020.i = phi i64 [ 0, %land.rhs.lr.ph.i ], [ %inc.i, %while.body.i ]
  %1 = xor i64 %sfx_len.020.i, -1
  %arrayidx.i.i = getelementptr i8, ptr %0, i64 %1
  %2 = load i8, ptr %arrayidx.i.i, align 1, !noalias !47
  %conv.i = sext i8 %2 to i32
  %isdigittmp.i = add nsw i32 %conv.i, -48
  %isdigit.i = icmp ult i32 %isdigittmp.i, 10
  br i1 %isdigit.i, label %while.body.i, label %_ZN7rocksdb12_GLOBAL__N_121GetPropertyNameAndArgERKNS_5SliceE.exit

while.body.i:                                     ; preds = %land.rhs.i
  %inc.i = add nuw i64 %sfx_len.020.i, 1
  %exitcond.not.i = icmp eq i64 %inc.i, %name.sroa.2.0.copyload.i
  br i1 %exitcond.not.i, label %_ZN7rocksdb12_GLOBAL__N_121GetPropertyNameAndArgERKNS_5SliceE.exit, label %land.rhs.i, !llvm.loop !46

_ZN7rocksdb12_GLOBAL__N_121GetPropertyNameAndArgERKNS_5SliceE.exit: ; preds = %land.rhs.i, %while.body.i, %entry
  %sfx_len.0.lcssa.i = phi i64 [ 0, %entry ], [ %sfx_len.020.i, %land.rhs.i ], [ %name.sroa.2.0.copyload.i, %while.body.i ]
  %handle_string = getelementptr inbounds i8, ptr %property_info, i64 8
  %.unpack = load i64, ptr %handle_string, align 8
  %.elt1 = getelementptr inbounds i8, ptr %property_info, i64 16
  %.unpack2 = load i64, ptr %.elt1, align 8
  %3 = getelementptr inbounds i8, ptr %this, i64 %.unpack2
  %4 = and i64 %.unpack, 1
  %memptr.isvirtual.not = icmp eq i64 %4, 0
  br i1 %memptr.isvirtual.not, label %memptr.nonvirtual, label %memptr.virtual

memptr.virtual:                                   ; preds = %_ZN7rocksdb12_GLOBAL__N_121GetPropertyNameAndArgERKNS_5SliceE.exit
  %vtable = load ptr, ptr %3, align 8
  %5 = getelementptr i8, ptr %vtable, i64 %.unpack
  %6 = getelementptr i8, ptr %5, i64 -1
  %memptr.virtualfn = load ptr, ptr %6, align 8, !nosanitize !50
  br label %memptr.end

memptr.nonvirtual:                                ; preds = %_ZN7rocksdb12_GLOBAL__N_121GetPropertyNameAndArgERKNS_5SliceE.exit
  %memptr.nonvirtualfn = inttoptr i64 %.unpack to ptr
  br label %memptr.end

memptr.end:                                       ; preds = %memptr.nonvirtual, %memptr.virtual
  %7 = phi ptr [ %memptr.virtualfn, %memptr.virtual ], [ %memptr.nonvirtualfn, %memptr.nonvirtual ]
  %sub.i.i = sub i64 %name.sroa.2.0.copyload.i, %sfx_len.0.lcssa.i
  %add.ptr.i.i = getelementptr inbounds i8, ptr %name.sroa.0.0.copyload.i, i64 %sub.i.i
  %call = tail call noundef zeroext i1 %7(ptr noundef nonnull align 8 dereferenceable(1944) %3, ptr noundef %value, ptr %add.ptr.i.i, i64 %sfx_len.0.lcssa.i)
  ret i1 %call
}